target datalayout = "e-m:e-p270:32:32-p271:32:32-p272:64:64-i64:64-i128:128-f80:128-n8:16:32:64-S128"
target triple = "x86_64-pc-linux-gnu"

%class.Node = type <{ ptr, ptr, ptr, i32, i32, i32, i32, i32, i32, i32, [4 x i8] }>

; Function Attrs: mustprogress nounwind uwtable
define linkonce_odr hidden noundef i32 @_Z6Op_Add9BasicType(i8 noundef zeroext %0) #1 comdat {
  %2 = alloca i32, align 4
  %3 = alloca i8, align 1
  store i8 %0, ptr %3, align 1
  %4 = load i8, ptr %3, align 1
  %5 = zext i8 %4 to i32
  %6 = icmp eq i32 %5, 10
  br i1 %6, label %7, label %8

7:                                                ; preds = %1
  store i32 23, ptr %2, align 4
  br label %9

8:                                                ; preds = %1
  store i32 24, ptr %2, align 4
  br label %9

9:                                                ; preds = %8, %7
  %10 = load i32, ptr %2, align 4
  ret i32 %10
}

; Function Attrs: mustprogress nounwind uwtable
define linkonce_odr hidden noundef ptr @_ZNK4Node2inEj(ptr noundef nonnull align 8 dereferenceable(52) %0, i32 noundef %1) #1 comdat align 2 {
  %3 = alloca ptr, align 8
  %4 = alloca i32, align 4
  store ptr %0, ptr %3, align 8
  store i32 %1, ptr %4, align 4
  %5 = load ptr, ptr %3, align 8
  %6 = getelementptr inbounds %class.Node, ptr %5, i32 0, i32 1
  %7 = load ptr, ptr %6, align 8
  %8 = load i32, ptr %4, align 4
  %9 = zext i32 %8 to i64
  %10 = getelementptr inbounds ptr, ptr %7, i64 %9
  %11 = load ptr, ptr %10, align 8
  ret ptr %11
}

; Function Attrs: mustprogress nounwind uwtable
define hidden noundef ptr @_ZN7MulNode24AndIL_add_shift_and_maskEP8PhaseGVN9BasicType(ptr noundef nonnull align 8 dereferenceable(52) %0, ptr noundef %1, i8 noundef zeroext %2) #1 align 2 {
  %4 = alloca ptr, align 8
  %5 = alloca ptr, align 8
  %6 = alloca ptr, align 8
  %7 = alloca i8, align 1
  %8 = alloca ptr, align 8
  %9 = alloca ptr, align 8
  %10 = alloca i32, align 4
  %11 = alloca ptr, align 8
  %12 = alloca ptr, align 8
  store ptr %0, ptr %5, align 8
  store ptr %1, ptr %6, align 8
  store i8 %2, ptr %7, align 1
  %13 = load ptr, ptr %5, align 8
  %14 = call noundef ptr @_ZNK4Node2inEj(ptr noundef nonnull align 8 dereferenceable(52) %13, i32 noundef 1)
  store ptr %14, ptr %8, align 8
  %15 = call noundef ptr @_ZNK4Node2inEj(ptr noundef nonnull align 8 dereferenceable(52) %13, i32 noundef 2)
  store ptr %15, ptr %9, align 8
  %16 = load ptr, ptr %8, align 8
  %17 = icmp eq ptr %16, null
  br i1 %17, label %21, label %18

18:                                               ; preds = %3
  %19 = load ptr, ptr %9, align 8
  %20 = icmp eq ptr %19, null
  br i1 %20, label %21, label %22

21:                                               ; preds = %18, %3
  store ptr null, ptr %4, align 8
  br label %83

22:                                               ; preds = %18
  store i32 0, ptr %10, align 4
  %23 = load ptr, ptr %8, align 8
  %24 = load ptr, ptr %23, align 8
  %25 = getelementptr inbounds ptr, ptr %24, i64 0
  %26 = load ptr, ptr %25, align 8
  %27 = call noundef i32 %26(ptr noundef nonnull align 8 dereferenceable(52) %23)
  %28 = load i8, ptr %7, align 1
  %29 = call noundef i32 @_Z6Op_Add9BasicType(i8 noundef zeroext %28)
  %30 = icmp eq i32 %27, %29
  br i1 %30, label %31, label %32

31:                                               ; preds = %22
  store i32 1, ptr %10, align 4
  br label %46

32:                                               ; preds = %22
  %33 = load ptr, ptr %9, align 8
  %34 = load ptr, ptr %33, align 8
  %35 = getelementptr inbounds ptr, ptr %34, i64 0
  %36 = load ptr, ptr %35, align 8
  %37 = call noundef i32 %36(ptr noundef nonnull align 8 dereferenceable(52) %33)
  %38 = load i8, ptr %7, align 1
  %39 = call noundef i32 @_Z6Op_Add9BasicType(i8 noundef zeroext %38)
  %40 = icmp eq i32 %37, %39
  br i1 %40, label %41, label %45

41:                                               ; preds = %32
  %42 = load ptr, ptr %8, align 8
  store ptr %42, ptr %9, align 8
  store i32 2, ptr %10, align 4
  %43 = load i32, ptr %10, align 4
  %44 = call noundef ptr @_ZNK4Node2inEj(ptr noundef nonnull align 8 dereferenceable(52) %13, i32 noundef %43)
  store ptr %44, ptr %8, align 8
  br label %45

45:                                               ; preds = %41, %32
  br label %46

46:                                               ; preds = %45, %31
  %47 = load i32, ptr %10, align 4
  %48 = icmp sgt i32 %47, 0
  br i1 %48, label %49, label %82

49:                                               ; preds = %46
  %50 = load ptr, ptr %8, align 8
  %51 = call noundef ptr @_ZNK4Node2inEj(ptr noundef nonnull align 8 dereferenceable(52) %50, i32 noundef 1)
  store ptr %51, ptr %11, align 8
  %52 = load ptr, ptr %8, align 8
  %53 = call noundef ptr @_ZNK4Node2inEj(ptr noundef nonnull align 8 dereferenceable(52) %52, i32 noundef 2)
  store ptr %53, ptr %12, align 8
  %54 = load ptr, ptr %11, align 8
  %55 = icmp ne ptr %54, null
  br i1 %55, label %56, label %81

56:                                               ; preds = %49
  %57 = load ptr, ptr %12, align 8
  %58 = icmp ne ptr %57, null
  br i1 %58, label %59, label %81

59:                                               ; preds = %56
  %60 = load ptr, ptr %6, align 8
  %61 = load ptr, ptr %11, align 8
  %62 = load ptr, ptr %9, align 8
  %63 = load i8, ptr %7, align 1
  %64 = call noundef zeroext i1 @_ZN7MulNode35AndIL_shift_and_mask_is_always_zeroEP8PhaseGVNP4NodeS3_9BasicTypeb(ptr noundef %60, ptr noundef %61, ptr noundef %62, i8 noundef zeroext %63, i1 noundef zeroext false)
  br i1 %64, label %65, label %69

65:                                               ; preds = %59
  %66 = load i32, ptr %10, align 4
  %67 = load ptr, ptr %12, align 8
  %68 = load ptr, ptr %6, align 8
  call void @_ZN4Node9set_req_XEjPS_P8PhaseGVN(ptr noundef nonnull align 8 dereferenceable(52) %13, i32 noundef %66, ptr noundef %67, ptr noundef %68)
  store ptr %13, ptr %4, align 8
  br label %83

69:                                               ; preds = %59
  %70 = load ptr, ptr %6, align 8
  %71 = load ptr, ptr %12, align 8
  %72 = load ptr, ptr %9, align 8
  %73 = load i8, ptr %7, align 1
  %74 = call noundef zeroext i1 @_ZN7MulNode35AndIL_shift_and_mask_is_always_zeroEP8PhaseGVNP4NodeS3_9BasicTypeb(ptr noundef %70, ptr noundef %71, ptr noundef %72, i8 noundef zeroext %73, i1 noundef zeroext false)
  br i1 %74, label %75, label %79

75:                                               ; preds = %69
  %76 = load i32, ptr %10, align 4
  %77 = load ptr, ptr %11, align 8
  %78 = load ptr, ptr %6, align 8
  call void @_ZN4Node9set_req_XEjPS_P8PhaseGVN(ptr noundef nonnull align 8 dereferenceable(52) %13, i32 noundef %76, ptr noundef %77, ptr noundef %78)
  store ptr %13, ptr %4, align 8
  br label %83

79:                                               ; preds = %69
  br label %80

80:                                               ; preds = %79
  br label %81

81:                                               ; preds = %80, %56, %49
  br label %82

82:                                               ; preds = %81, %46
  store ptr null, ptr %4, align 8
  br label %83

83:                                               ; preds = %82, %75, %65, %21
  %84 = load ptr, ptr %4, align 8
  ret ptr %84
}