; Function Attrs: mustprogress nounwind uwtable
define hidden noundef ptr @_ZN7MulNode24AndIL_add_shift_and_maskEP8PhaseGVN9BasicType(ptr noundef nonnull align 8 dereferenceable(52) %0, ptr noundef %1, i8 noundef zeroext %2) local_unnamed_addr #0 align 2 {
  %4 = getelementptr inbounds i8, ptr %0, i64 8
  %5 = load ptr, ptr %4, align 8
  %6 = getelementptr inbounds i8, ptr %5, i64 8
  %7 = load ptr, ptr %6, align 8
  %8 = getelementptr inbounds i8, ptr %5, i64 16
  %9 = load ptr, ptr %8, align 8
  %10 = icmp eq ptr %7, null
  %11 = icmp eq ptr %9, null
  %or.cond = or i1 %10, %11
  br i1 %or.cond, label %40, label %12

12:                                               ; preds = %3
  %13 = load ptr, ptr %7, align 8
  %14 = load ptr, ptr %13, align 8
  %15 = tail call noundef i32 %14(ptr noundef nonnull align 8 dereferenceable(52) %7) #10
  %16 = icmp eq i8 %2, 10
  %..i = select i1 %16, i32 23, i32 24
  %17 = icmp eq i32 %15, %..i
  br i1 %17, label %27, label %18

18:                                               ; preds = %12
  %19 = load ptr, ptr %9, align 8
  %20 = load ptr, ptr %19, align 8
  %21 = tail call noundef i32 %20(ptr noundef nonnull align 8 dereferenceable(52) %9) #10
  %22 = icmp eq i32 %21, %..i
  br i1 %22, label %23, label %40

23:                                               ; preds = %18
  %24 = load ptr, ptr %4, align 8
  %25 = getelementptr inbounds i8, ptr %24, i64 16
  %26 = load ptr, ptr %25, align 8
  br label %27

27:                                               ; preds = %23, %12
  %.033.ph = phi ptr [ %9, %12 ], [ %7, %23 ]
  %.032.ph = phi i32 [ 1, %12 ], [ 2, %23 ]
  %.031.ph = phi ptr [ %7, %12 ], [ %26, %23 ]
  %28 = getelementptr inbounds i8, ptr %.031.ph, i64 8
  %29 = load ptr, ptr %28, align 8
  %30 = getelementptr inbounds i8, ptr %29, i64 8
  %31 = load ptr, ptr %30, align 8
  %32 = getelementptr inbounds i8, ptr %29, i64 16
  %33 = load ptr, ptr %32, align 8
  %34 = icmp ne ptr %31, null
  %35 = icmp ne ptr %33, null
  %or.cond3 = and i1 %34, %35
  br i1 %or.cond3, label %36, label %40

36:                                               ; preds = %27
  %37 = tail call noundef zeroext i1 @_ZN7MulNode35AndIL_shift_and_mask_is_always_zeroEP8PhaseGVNP4NodeS3_9BasicTypeb(ptr noundef %1, ptr noundef nonnull %31, ptr noundef nonnull %.033.ph, i8 noundef zeroext %2, i1 noundef zeroext false)
  br i1 %37, label %.sink.split, label %38

38:                                               ; preds = %36
  %39 = tail call noundef zeroext i1 @_ZN7MulNode35AndIL_shift_and_mask_is_always_zeroEP8PhaseGVNP4NodeS3_9BasicTypeb(ptr noundef %1, ptr noundef nonnull %33, ptr noundef nonnull %.033.ph, i8 noundef zeroext %2, i1 noundef zeroext false)
  br i1 %39, label %.sink.split, label %40

.sink.split:                                      ; preds = %38, %36
  %.sink = phi ptr [ %33, %36 ], [ %31, %38 ]
  tail call void @_ZN4Node9set_req_XEjPS_P8PhaseGVN(ptr noundef nonnull align 8 dereferenceable(52) %0, i32 noundef %.032.ph, ptr noundef nonnull %.sink, ptr noundef %1) #10
  br label %40

40:                                               ; preds = %.sink.split, %18, %38, %27, %3
  %.0 = phi ptr [ null, %3 ], [ null, %27 ], [ null, %38 ], [ null, %18 ], [ %0, %.sink.split ]
  ret ptr %.0
}